target datalayout = "e-m:e-p270:32:32-p271:32:32-p272:64:64-i64:64-i128:128-f80:128-n8:16:32:64-S128"
target triple = "x86_64-pc-linux-gnu"

%struct.PyModuleDef = type { %struct.PyModuleDef_Base, ptr, ptr, i64, ptr, ptr, ptr, ptr, ptr }
%struct.PyModuleDef_Base = type { %struct._object, ptr, i64, ptr }
%struct._object = type { %union.anon, ptr }
%union.anon = type { i64 }
%struct._bz2_state = type { ptr, ptr }
%struct.BZ2Compressor = type { %struct._object, %struct.bz_stream, i32, ptr }
%struct.bz_stream = type { ptr, i32, i32, i32, ptr, i32, i32, i32, ptr, ptr, ptr, ptr }
%struct._typeobject = type { %struct.PyVarObject, ptr, i64, i64, ptr, i64, ptr, ptr, ptr, ptr, ptr, ptr, ptr, ptr, ptr, ptr, ptr, ptr, ptr, i64, ptr, ptr, ptr, ptr, i64, ptr, ptr, ptr, ptr, ptr, ptr, ptr, ptr, ptr, i64, ptr, ptr, ptr, ptr, ptr, ptr, ptr, ptr, ptr, ptr, ptr, i32, ptr, ptr, i8, i16 }
%struct.PyVarObject = type { %struct._object, i64 }
%struct.PyTupleObject = type { %struct.PyVarObject, [1 x ptr] }
%struct.anon = type { i32, i32 }

@_bz2module = internal global %struct.PyModuleDef { %struct.PyModuleDef_Base { %struct._object { %union.anon { i64 552977039360 }, ptr null }, ptr null, i64 0, ptr null }, ptr @.str, ptr null, i64 16, ptr null, ptr @_bz2_slots, ptr @_bz2_traverse, ptr @_bz2_clear, ptr @_bz2_free }, align 8
@PyExc_ValueError = external global ptr, align 8
@PyExc_MemoryError = external global ptr, align 8
@.str.18 = private unnamed_addr constant [14 x i8] c"BZ2Compressor\00", align 1
@.str.19 = private unnamed_addr constant [38 x i8] c"compresslevel must be between 1 and 9\00", align 1
@.str.20 = private unnamed_addr constant [24 x i8] c"Unable to allocate lock\00", align 1

; Function Attrs: alwaysinline nounwind uwtable
define internal i32 @_Py_IsImmortal(ptr noundef %0) #4 {
  %2 = alloca ptr, align 8
  store ptr %0, ptr %2, align 8, !tbaa !3
  %3 = load ptr, ptr %2, align 8, !tbaa !3
  %4 = getelementptr inbounds nuw %struct._object, ptr %3, i32 0, i32 0
  %5 = getelementptr inbounds nuw %struct.anon, ptr %4, i32 0, i32 0
  %6 = load i32, ptr %5, align 8, !tbaa !33
  %7 = icmp slt i32 %6, 0
  %8 = zext i1 %7 to i32
  ret i32 %8
}

; Function Attrs: alwaysinline nounwind uwtable
define internal void @Py_DECREF(ptr noundef %0) #4 {
  %2 = alloca ptr, align 8
  store ptr %0, ptr %2, align 8, !tbaa !3
  %3 = load ptr, ptr %2, align 8, !tbaa !3
  %4 = call i32 @_Py_IsImmortal(ptr noundef %3)
  %5 = icmp ne i32 %4, 0
  br i1 %5, label %6, label %7

6:                                                ; preds = %1
  br label %16

7:                                                ; preds = %1
  %8 = load ptr, ptr %2, align 8, !tbaa !3
  %9 = getelementptr inbounds nuw %struct._object, ptr %8, i32 0, i32 0
  %10 = getelementptr inbounds nuw %struct.anon, ptr %9, i32 0, i32 0
  %11 = load i32, ptr %10, align 8, !tbaa !33
  %12 = add i32 %11, -1
  store i32 %12, ptr %10, align 8, !tbaa !33
  %13 = icmp eq i32 %12, 0
  br i1 %13, label %14, label %16

14:                                               ; preds = %7
  %15 = load ptr, ptr %2, align 8, !tbaa !3
  call void @_Py_Dealloc(ptr noundef %15)
  br label %16

16:                                               ; preds = %6, %14, %7
  ret void
}

; Function Attrs: inlinehint nounwind uwtable
define internal i64 @Py_SIZE(ptr noundef %0) #3 {
  %2 = alloca ptr, align 8
  store ptr %0, ptr %2, align 8, !tbaa !3
  %3 = load ptr, ptr %2, align 8, !tbaa !3
  %4 = getelementptr inbounds nuw %struct.PyVarObject, ptr %3, i32 0, i32 1
  %5 = load i64, ptr %4, align 8, !tbaa !58
  ret i64 %5
}

; Function Attrs: inlinehint nounwind uwtable
define internal ptr @get_module_state(ptr noundef %0) #3 {
  %2 = alloca ptr, align 8
  %3 = alloca ptr, align 8
  store ptr %0, ptr %2, align 8, !tbaa !3
  call void @llvm.lifetime.start.p0(i64 8, ptr %3) #7
  %4 = load ptr, ptr %2, align 8, !tbaa !3
  %5 = call ptr @PyModule_GetState(ptr noundef %4)
  store ptr %5, ptr %3, align 8, !tbaa !8
  %6 = load ptr, ptr %3, align 8, !tbaa !8
  call void @llvm.lifetime.end.p0(i64 8, ptr %3) #7
  ret ptr %6
}

; Function Attrs: nounwind uwtable
define internal ptr @_bz2_BZ2Compressor_impl(ptr noundef %0, i32 noundef %1) #0 {
  %3 = alloca ptr, align 8
  %4 = alloca ptr, align 8
  %5 = alloca i32, align 4
  %6 = alloca i32, align 4
  %7 = alloca ptr, align 8
  %8 = alloca i32, align 4
  store ptr %0, ptr %4, align 8, !tbaa !17
  store i32 %1, ptr %5, align 4, !tbaa !12
  call void @llvm.lifetime.start.p0(i64 4, ptr %6) #7
  call void @llvm.lifetime.start.p0(i64 8, ptr %7) #7
  %9 = load i32, ptr %5, align 4, !tbaa !12
  %10 = icmp sle i32 1, %9
  br i1 %10, label %11, label %14

11:                                               ; preds = %2
  %12 = load i32, ptr %5, align 4, !tbaa !12
  %13 = icmp sle i32 %12, 9
  br i1 %13, label %16, label %14

14:                                               ; preds = %11, %2
  %15 = load ptr, ptr @PyExc_ValueError, align 8, !tbaa !3
  call void @PyErr_SetString(ptr noundef %15, ptr noundef @.str.19)
  store ptr null, ptr %3, align 8
  store i32 1, ptr %8, align 4
  br label %58

16:                                               ; preds = %11
  %17 = load ptr, ptr %4, align 8, !tbaa !17
  %18 = getelementptr inbounds nuw %struct._typeobject, ptr %17, i32 0, i32 36
  %19 = load ptr, ptr %18, align 8, !tbaa !62
  %20 = load ptr, ptr %4, align 8, !tbaa !17
  %21 = call ptr %19(ptr noundef %20, i64 noundef 0)
  store ptr %21, ptr %7, align 8, !tbaa !8
  %22 = load ptr, ptr %7, align 8, !tbaa !8
  %23 = icmp eq ptr %22, null
  br i1 %23, label %24, label %25

24:                                               ; preds = %16
  store ptr null, ptr %3, align 8
  store i32 1, ptr %8, align 4
  br label %58

25:                                               ; preds = %16
  %26 = call ptr @PyThread_allocate_lock()
  %27 = load ptr, ptr %7, align 8, !tbaa !8
  %28 = getelementptr inbounds nuw %struct.BZ2Compressor, ptr %27, i32 0, i32 3
  store ptr %26, ptr %28, align 8, !tbaa !18
  %29 = load ptr, ptr %7, align 8, !tbaa !8
  %30 = getelementptr inbounds nuw %struct.BZ2Compressor, ptr %29, i32 0, i32 3
  %31 = load ptr, ptr %30, align 8, !tbaa !18
  %32 = icmp eq ptr %31, null
  br i1 %32, label %33, label %36

33:                                               ; preds = %25
  %34 = load ptr, ptr %7, align 8, !tbaa !8
  call void @Py_DECREF(ptr noundef %34)
  %35 = load ptr, ptr @PyExc_MemoryError, align 8, !tbaa !3
  call void @PyErr_SetString(ptr noundef %35, ptr noundef @.str.20)
  store ptr null, ptr %3, align 8
  store i32 1, ptr %8, align 4
  br label %58

36:                                               ; preds = %25
  %37 = load ptr, ptr %7, align 8, !tbaa !8
  %38 = getelementptr inbounds nuw %struct.BZ2Compressor, ptr %37, i32 0, i32 1
  %39 = getelementptr inbounds nuw %struct.bz_stream, ptr %38, i32 0, i32 11
  store ptr null, ptr %39, align 8, !tbaa !63
  %40 = load ptr, ptr %7, align 8, !tbaa !8
  %41 = getelementptr inbounds nuw %struct.BZ2Compressor, ptr %40, i32 0, i32 1
  %42 = getelementptr inbounds nuw %struct.bz_stream, ptr %41, i32 0, i32 9
  store ptr @BZ2_Malloc, ptr %42, align 8, !tbaa !64
  %43 = load ptr, ptr %7, align 8, !tbaa !8
  %44 = getelementptr inbounds nuw %struct.BZ2Compressor, ptr %43, i32 0, i32 1
  %45 = getelementptr inbounds nuw %struct.bz_stream, ptr %44, i32 0, i32 10
  store ptr @BZ2_Free, ptr %45, align 8, !tbaa !65
  %46 = load ptr, ptr %7, align 8, !tbaa !8
  %47 = getelementptr inbounds nuw %struct.BZ2Compressor, ptr %46, i32 0, i32 1
  %48 = load i32, ptr %5, align 4, !tbaa !12
  %49 = call i32 @BZ2_bzCompressInit(ptr noundef %47, i32 noundef %48, i32 noundef 0, i32 noundef 0)
  store i32 %49, ptr %6, align 4, !tbaa !12
  %50 = load i32, ptr %6, align 4, !tbaa !12
  %51 = call i32 @catch_bz2_error(i32 noundef %50)
  %52 = icmp ne i32 %51, 0
  br i1 %52, label %53, label %54

53:                                               ; preds = %36
  br label %56

54:                                               ; preds = %36
  %55 = load ptr, ptr %7, align 8, !tbaa !8
  store ptr %55, ptr %3, align 8
  store i32 1, ptr %8, align 4
  br label %58

56:                                               ; preds = %53
  %57 = load ptr, ptr %7, align 8, !tbaa !8
  call void @Py_DECREF(ptr noundef %57)
  store ptr null, ptr %3, align 8
  store i32 1, ptr %8, align 4
  br label %58

58:                                               ; preds = %56, %54, %33, %24, %14
  call void @llvm.lifetime.end.p0(i64 8, ptr %7) #7
  call void @llvm.lifetime.end.p0(i64 4, ptr %6) #7
  %59 = load ptr, ptr %3, align 8
  ret ptr %59
}

; Function Attrs: inlinehint nounwind uwtable
define internal i64 @PyTuple_GET_SIZE(ptr noundef %0) #3 {
  %2 = alloca ptr, align 8
  %3 = alloca ptr, align 8
  store ptr %0, ptr %2, align 8, !tbaa !3
  call void @llvm.lifetime.start.p0(i64 8, ptr %3) #7
  %4 = load ptr, ptr %2, align 8, !tbaa !3
  store ptr %4, ptr %3, align 8, !tbaa !8
  %5 = load ptr, ptr %3, align 8, !tbaa !8
  %6 = call i64 @Py_SIZE(ptr noundef %5)
  call void @llvm.lifetime.end.p0(i64 8, ptr %3) #7
  ret i64 %6
}

; Function Attrs: inlinehint nounwind uwtable
define internal ptr @find_module_state_by_def(ptr noundef %0) #3 {
  %2 = alloca ptr, align 8
  %3 = alloca ptr, align 8
  store ptr %0, ptr %2, align 8, !tbaa !17
  call void @llvm.lifetime.start.p0(i64 8, ptr %3) #7
  %4 = load ptr, ptr %2, align 8, !tbaa !17
  %5 = call ptr @PyType_GetModuleByDef(ptr noundef %4, ptr noundef @_bz2module)
  store ptr %5, ptr %3, align 8, !tbaa !3
  %6 = load ptr, ptr %3, align 8, !tbaa !3
  %7 = call ptr @get_module_state(ptr noundef %6)
  call void @llvm.lifetime.end.p0(i64 8, ptr %3) #7
  ret ptr %7
}

; Function Attrs: nounwind uwtable
define internal ptr @_bz2_BZ2Compressor(ptr noundef %0, ptr noundef %1, ptr noundef %2) #0 {
  %4 = alloca ptr, align 8
  %5 = alloca ptr, align 8
  %6 = alloca ptr, align 8
  %7 = alloca ptr, align 8
  %8 = alloca ptr, align 8
  %9 = alloca i32, align 4
  store ptr %0, ptr %4, align 8, !tbaa !17
  store ptr %1, ptr %5, align 8, !tbaa !3
  store ptr %2, ptr %6, align 8, !tbaa !3
  call void @llvm.lifetime.start.p0(i64 8, ptr %7) #7
  store ptr null, ptr %7, align 8, !tbaa !3
  call void @llvm.lifetime.start.p0(i64 8, ptr %8) #7
  %10 = load ptr, ptr %4, align 8, !tbaa !17
  %11 = call ptr @find_module_state_by_def(ptr noundef %10)
  %12 = getelementptr inbounds nuw %struct._bz2_state, ptr %11, i32 0, i32 0
  %13 = load ptr, ptr %12, align 8, !tbaa !9
  store ptr %13, ptr %8, align 8, !tbaa !17
  call void @llvm.lifetime.start.p0(i64 4, ptr %9) #7
  store i32 9, ptr %9, align 4, !tbaa !12
  %14 = load ptr, ptr %4, align 8, !tbaa !17
  %15 = load ptr, ptr %8, align 8, !tbaa !17
  %16 = icmp eq ptr %14, %15
  br i1 %16, label %25, label %17

17:                                               ; preds = %3
  %18 = load ptr, ptr %4, align 8, !tbaa !17
  %19 = getelementptr inbounds nuw %struct._typeobject, ptr %18, i32 0, i32 35
  %20 = load ptr, ptr %19, align 8, !tbaa !31
  %21 = load ptr, ptr %8, align 8, !tbaa !17
  %22 = getelementptr inbounds nuw %struct._typeobject, ptr %21, i32 0, i32 35
  %23 = load ptr, ptr %22, align 8, !tbaa !31
  %24 = icmp eq ptr %20, %23
  br i1 %24, label %25, label %33

25:                                               ; preds = %17, %3
  %26 = load ptr, ptr %6, align 8, !tbaa !3
  %27 = icmp eq ptr %26, null
  br i1 %27, label %33, label %28

28:                                               ; preds = %25
  %29 = load ptr, ptr %6, align 8, !tbaa !3
  %30 = call i32 @_PyArg_NoKeywords(ptr noundef @.str.18, ptr noundef %29)
  %31 = icmp ne i32 %30, 0
  br i1 %31, label %33, label %32

32:                                               ; preds = %28
  br label %69

33:                                               ; preds = %28, %25, %17
  %34 = load ptr, ptr %5, align 8, !tbaa !3
  %35 = call i64 @PyTuple_GET_SIZE(ptr noundef %34)
  %36 = icmp sle i64 0, %35
  br i1 %36, label %37, label %41

37:                                               ; preds = %33
  %38 = load ptr, ptr %5, align 8, !tbaa !3
  %39 = call i64 @PyTuple_GET_SIZE(ptr noundef %38)
  %40 = icmp sle i64 %39, 1
  br i1 %40, label %47, label %41

41:                                               ; preds = %37, %33
  %42 = load ptr, ptr %5, align 8, !tbaa !3
  %43 = call i64 @PyTuple_GET_SIZE(ptr noundef %42)
  %44 = call i32 @_PyArg_CheckPositional(ptr noundef @.str.18, i64 noundef %43, i64 noundef 0, i64 noundef 1)
  %45 = icmp ne i32 %44, 0
  br i1 %45, label %47, label %46

46:                                               ; preds = %41
  br label %69

47:                                               ; preds = %41, %37
  %48 = load ptr, ptr %5, align 8, !tbaa !3
  %49 = call i64 @PyTuple_GET_SIZE(ptr noundef %48)
  %50 = icmp slt i64 %49, 1
  br i1 %50, label %51, label %52

51:                                               ; preds = %47
  br label %65

52:                                               ; preds = %47
  %53 = load ptr, ptr %5, align 8, !tbaa !3
  %54 = getelementptr inbounds nuw %struct.PyTupleObject, ptr %53, i32 0, i32 1
  %55 = getelementptr [1 x ptr], ptr %54, i64 0, i64 0
  %56 = load ptr, ptr %55, align 8, !tbaa !3
  %57 = call i32 @PyLong_AsInt(ptr noundef %56)
  store i32 %57, ptr %9, align 4, !tbaa !12
  %58 = load i32, ptr %9, align 4, !tbaa !12
  %59 = icmp eq i32 %58, -1
  br i1 %59, label %60, label %64

60:                                               ; preds = %52
  %61 = call ptr @PyErr_Occurred()
  %62 = icmp ne ptr %61, null
  br i1 %62, label %63, label %64

63:                                               ; preds = %60
  br label %69

64:                                               ; preds = %60, %52
  br label %65

65:                                               ; preds = %64, %51
  %66 = load ptr, ptr %4, align 8, !tbaa !17
  %67 = load i32, ptr %9, align 4, !tbaa !12
  %68 = call ptr @_bz2_BZ2Compressor_impl(ptr noundef %66, i32 noundef %67)
  store ptr %68, ptr %7, align 8, !tbaa !3
  br label %69

69:                                               ; preds = %65, %63, %46, %32
  %70 = load ptr, ptr %7, align 8, !tbaa !3
  call void @llvm.lifetime.end.p0(i64 4, ptr %9) #7
  call void @llvm.lifetime.end.p0(i64 8, ptr %8) #7
  call void @llvm.lifetime.end.p0(i64 8, ptr %7) #7
  ret ptr %70
}