; Function Attrs: nounwind uwtable
define internal ptr @_bz2_BZ2Compressor(ptr noundef %0, ptr noundef readonly captures(none) %1, ptr noundef %2) #0 {
  %4 = tail call ptr @PyType_GetModuleByDef(ptr noundef %0, ptr noundef nonnull @_bz2module) #7
  %5 = tail call ptr @PyModule_GetState(ptr noundef %4) #7
  %6 = load ptr, ptr %5, align 8, !tbaa !3
  %7 = icmp eq ptr %0, %6
  br i1 %7, label %15, label %8

8:                                                ; preds = %3
  %9 = getelementptr inbounds nuw i8, ptr %0, i64 296
  %10 = load ptr, ptr %9, align 8, !tbaa !28
  %11 = getelementptr inbounds nuw i8, ptr %6, i64 296
  %12 = load ptr, ptr %11, align 8, !tbaa !28
  %13 = icmp ne ptr %10, %12
  %14 = icmp eq ptr %2, null
  %or.cond = or i1 %14, %13
  br i1 %or.cond, label %18, label %16

15:                                               ; preds = %3
  %.old1 = icmp eq ptr %2, null
  br i1 %.old1, label %18, label %16

16:                                               ; preds = %8, %15
  %17 = tail call i32 @_PyArg_NoKeywords(ptr noundef nonnull @.str.18, ptr noundef nonnull %2) #7
  %.not = icmp eq i32 %17, 0
  br i1 %.not, label %_bz2_BZ2Compressor_impl.exit, label %18

18:                                               ; preds = %16, %15, %8
  %19 = getelementptr i8, ptr %1, i64 16
  %.val = load i64, ptr %19, align 8, !tbaa !29
  %or.cond31 = icmp ult i64 %.val, 2
  br i1 %or.cond31, label %22, label %20

20:                                               ; preds = %18
  %21 = tail call i32 @_PyArg_CheckPositional(ptr noundef nonnull @.str.18, i64 noundef %.val, i64 noundef 0, i64 noundef 1) #7
  %.not20 = icmp eq i32 %21, 0
  br i1 %.not20, label %_bz2_BZ2Compressor_impl.exit, label %thread-pre-split

thread-pre-split:                                 ; preds = %20
  %.val24.pr = load i64, ptr %19, align 8, !tbaa !29
  br label %22

22:                                               ; preds = %18, %thread-pre-split
  %.val24 = phi i64 [ %.val24.pr, %thread-pre-split ], [ %.val, %18 ]
  %23 = icmp slt i64 %.val24, 1
  br i1 %23, label %.thread, label %24

24:                                               ; preds = %22
  %25 = getelementptr inbounds nuw i8, ptr %1, i64 24
  %26 = load ptr, ptr %25, align 8, !tbaa !30
  %27 = tail call i32 @PyLong_AsInt(ptr noundef %26) #7
  %28 = icmp eq i32 %27, -1
  br i1 %28, label %29, label %31

29:                                               ; preds = %24
  %30 = tail call ptr @PyErr_Occurred() #7
  %.not21 = icmp eq ptr %30, null
  br i1 %.not21, label %.thread28, label %_bz2_BZ2Compressor_impl.exit

31:                                               ; preds = %24
  %32 = add i32 %27, -1
  %or.cond.i = icmp ult i32 %32, 9
  br i1 %or.cond.i, label %.thread, label %.thread28

.thread28:                                        ; preds = %29, %31
  %33 = load ptr, ptr @PyExc_ValueError, align 8, !tbaa !30
  tail call void @PyErr_SetString(ptr noundef %33, ptr noundef nonnull @.str.19) #7
  br label %_bz2_BZ2Compressor_impl.exit

.thread:                                          ; preds = %22, %31
  %.027 = phi i32 [ %27, %31 ], [ 9, %22 ]
  %34 = getelementptr inbounds nuw i8, ptr %0, i64 304
  %35 = load ptr, ptr %34, align 8, !tbaa !31
  %36 = tail call ptr %35(ptr noundef %0, i64 noundef 0) #7
  %37 = icmp eq ptr %36, null
  br i1 %37, label %_bz2_BZ2Compressor_impl.exit, label %38

38:                                               ; preds = %.thread
  %39 = tail call ptr @PyThread_allocate_lock() #7
  %40 = getelementptr inbounds nuw i8, ptr %36, i64 104
  store ptr %39, ptr %40, align 8, !tbaa !12
  %41 = icmp eq ptr %39, null
  br i1 %41, label %42, label %49

42:                                               ; preds = %38
  %43 = load i32, ptr %36, align 8, !tbaa !11
  %.not.i19.i = icmp sgt i32 %43, -1
  br i1 %.not.i19.i, label %44, label %Py_DECREF.exit20.i

44:                                               ; preds = %42
  %45 = add nsw i32 %43, -1
  store i32 %45, ptr %36, align 8, !tbaa !11
  %46 = icmp eq i32 %45, 0
  br i1 %46, label %47, label %Py_DECREF.exit20.i

47:                                               ; preds = %44
  tail call void @_Py_Dealloc(ptr noundef nonnull %36) #7
  br label %Py_DECREF.exit20.i

Py_DECREF.exit20.i:                               ; preds = %47, %44, %42
  %48 = load ptr, ptr @PyExc_MemoryError, align 8, !tbaa !30
  tail call void @PyErr_SetString(ptr noundef %48, ptr noundef nonnull @.str.20) #7
  br label %_bz2_BZ2Compressor_impl.exit

49:                                               ; preds = %38
  %50 = getelementptr inbounds nuw i8, ptr %36, i64 16
  %51 = getelementptr inbounds nuw i8, ptr %36, i64 88
  store ptr null, ptr %51, align 8, !tbaa !32
  %52 = getelementptr inbounds nuw i8, ptr %36, i64 72
  store ptr @BZ2_Malloc, ptr %52, align 8, !tbaa !33
  %53 = getelementptr inbounds nuw i8, ptr %36, i64 80
  store ptr @BZ2_Free, ptr %53, align 8, !tbaa !34
  %54 = tail call i32 @BZ2_bzCompressInit(ptr noundef nonnull %50, i32 noundef %.027, i32 noundef 0, i32 noundef 0) #7
  %55 = tail call fastcc i32 @catch_bz2_error(i32 noundef %54)
  %.not.i = icmp eq i32 %55, 0
  br i1 %.not.i, label %_bz2_BZ2Compressor_impl.exit, label %56

56:                                               ; preds = %49
  %57 = load i32, ptr %36, align 8, !tbaa !11
  %.not.i.i = icmp sgt i32 %57, -1
  br i1 %.not.i.i, label %58, label %_bz2_BZ2Compressor_impl.exit

58:                                               ; preds = %56
  %59 = add nsw i32 %57, -1
  store i32 %59, ptr %36, align 8, !tbaa !11
  %60 = icmp eq i32 %59, 0
  br i1 %60, label %61, label %_bz2_BZ2Compressor_impl.exit

61:                                               ; preds = %58
  tail call void @_Py_Dealloc(ptr noundef nonnull %36) #7
  br label %_bz2_BZ2Compressor_impl.exit

_bz2_BZ2Compressor_impl.exit:                     ; preds = %61, %58, %56, %49, %Py_DECREF.exit20.i, %.thread, %.thread28, %29, %20, %16
  %.016 = phi ptr [ null, %29 ], [ null, %20 ], [ null, %16 ], [ null, %Py_DECREF.exit20.i ], [ null, %.thread28 ], [ null, %.thread ], [ %36, %49 ], [ null, %56 ], [ null, %58 ], [ null, %61 ]
  ret ptr %.016
}